target datalayout = "e-m:e-p270:32:32-p271:32:32-p272:64:64-i64:64-i128:128-f80:128-n8:16:32:64-S128"
target triple = "x86_64-pc-linux-gnu"

@.str.73 = private unnamed_addr constant [48 x i8] c"ELF: Section type: Dynamic linking information\0A\00", align 1
@.str.74 = private unnamed_addr constant [48 x i8] c"ELF: Section type: Symbols for dynamic linking\0A\00", align 1
@.str.75 = private unnamed_addr constant [63 x i8] c"ELF: Section type: Array of pointers to termination functions\0A\00", align 1
@.str.76 = private unnamed_addr constant [38 x i8] c"ELF: Section type: Symbol hash table\0A\00", align 1
@.str.77 = private unnamed_addr constant [66 x i8] c"ELF: Section type: Array of pointers to initialization functions\0A\00", align 1
@.str.78 = private unnamed_addr constant [43 x i8] c"ELF: Section type: Empty section (NOBITS)\0A\00", align 1
@.str.79 = private unnamed_addr constant [33 x i8] c"ELF: Section type: Note section\0A\00", align 1
@.str.80 = private unnamed_addr constant [49 x i8] c"ELF: Section type: Null (no associated section)\0A\00", align 1
@.str.81 = private unnamed_addr constant [59 x i8] c"ELF: Section type: Array of pointers to preinit functions\0A\00", align 1
@.str.82 = private unnamed_addr constant [40 x i8] c"ELF: Section type: Program information\0A\00", align 1
@.str.83 = private unnamed_addr constant [60 x i8] c"ELF: Section type: Relocation entries w/o explicit addends\0A\00", align 1
@.str.84 = private unnamed_addr constant [61 x i8] c"ELF: Section type: Relocation entries with explicit addends\0A\00", align 1
@.str.85 = private unnamed_addr constant [33 x i8] c"ELF: Section type: String table\0A\00", align 1
@.str.86 = private unnamed_addr constant [33 x i8] c"ELF: Section type: Symbol table\0A\00", align 1
@.str.87 = private unnamed_addr constant [45 x i8] c"ELF: Section type: Provided symbol versions\0A\00", align 1
@.str.88 = private unnamed_addr constant [45 x i8] c"ELF: Section type: Required symbol versions\0A\00", align 1
@.str.89 = private unnamed_addr constant [41 x i8] c"ELF: Section type: Symbol Version Table\0A\00", align 1
@.str.90 = private unnamed_addr constant [28 x i8] c"ELF: Section type: Unknown\0A\00", align 1
@.str.91 = private unnamed_addr constant [37 x i8] c"ELF: Section contains writable data\0A\00", align 1
@.str.92 = private unnamed_addr constant [30 x i8] c"ELF: Section occupies memory\0A\00", align 1
@.str.93 = private unnamed_addr constant [39 x i8] c"ELF: Section contains executable code\0A\00", align 1

; Function Attrs: nounwind uwtable
define internal void @cli_elf_sectionlog(i32 noundef %0, i32 noundef %1) #0 {
  %3 = alloca i32, align 4
  %4 = alloca i32, align 4
  store i32 %0, ptr %3, align 4
  store i32 %1, ptr %4, align 4
  %5 = load i32, ptr %3, align 4
  switch i32 %5, label %23 [
    i32 6, label %6
    i32 11, label %7
    i32 15, label %8
    i32 5, label %9
    i32 14, label %10
    i32 8, label %11
    i32 7, label %12
    i32 0, label %13
    i32 16, label %14
    i32 1, label %15
    i32 9, label %16
    i32 4, label %17
    i32 3, label %18
    i32 2, label %19
    i32 1879048189, label %20
    i32 1879048190, label %21
    i32 1879048191, label %22
  ]

6:                                                ; preds = %2
  call void (ptr, ...) @cli_dbgmsg(ptr noundef @.str.73)
  br label %24

7:                                                ; preds = %2
  call void (ptr, ...) @cli_dbgmsg(ptr noundef @.str.74)
  br label %24

8:                                                ; preds = %2
  call void (ptr, ...) @cli_dbgmsg(ptr noundef @.str.75)
  br label %24

9:                                                ; preds = %2
  call void (ptr, ...) @cli_dbgmsg(ptr noundef @.str.76)
  br label %24

10:                                               ; preds = %2
  call void (ptr, ...) @cli_dbgmsg(ptr noundef @.str.77)
  br label %24

11:                                               ; preds = %2
  call void (ptr, ...) @cli_dbgmsg(ptr noundef @.str.78)
  br label %24

12:                                               ; preds = %2
  call void (ptr, ...) @cli_dbgmsg(ptr noundef @.str.79)
  br label %24

13:                                               ; preds = %2
  call void (ptr, ...) @cli_dbgmsg(ptr noundef @.str.80)
  br label %24

14:                                               ; preds = %2
  call void (ptr, ...) @cli_dbgmsg(ptr noundef @.str.81)
  br label %24

15:                                               ; preds = %2
  call void (ptr, ...) @cli_dbgmsg(ptr noundef @.str.82)
  br label %24

16:                                               ; preds = %2
  call void (ptr, ...) @cli_dbgmsg(ptr noundef @.str.83)
  br label %24

17:                                               ; preds = %2
  call void (ptr, ...) @cli_dbgmsg(ptr noundef @.str.84)
  br label %24

18:                                               ; preds = %2
  call void (ptr, ...) @cli_dbgmsg(ptr noundef @.str.85)
  br label %24

19:                                               ; preds = %2
  call void (ptr, ...) @cli_dbgmsg(ptr noundef @.str.86)
  br label %24

20:                                               ; preds = %2
  call void (ptr, ...) @cli_dbgmsg(ptr noundef @.str.87)
  br label %24

21:                                               ; preds = %2
  call void (ptr, ...) @cli_dbgmsg(ptr noundef @.str.88)
  br label %24

22:                                               ; preds = %2
  call void (ptr, ...) @cli_dbgmsg(ptr noundef @.str.89)
  br label %24

23:                                               ; preds = %2
  call void (ptr, ...) @cli_dbgmsg(ptr noundef @.str.90)
  br label %24

24:                                               ; preds = %23, %22, %21, %20, %19, %18, %17, %16, %15, %14, %13, %12, %11, %10, %9, %8, %7, %6
  %25 = load i32, ptr %4, align 4
  %26 = and i32 %25, 1
  %27 = icmp ne i32 %26, 0
  br i1 %27, label %28, label %29

28:                                               ; preds = %24
  call void (ptr, ...) @cli_dbgmsg(ptr noundef @.str.91)
  br label %29

29:                                               ; preds = %28, %24
  %30 = load i32, ptr %4, align 4
  %31 = and i32 %30, 2
  %32 = icmp ne i32 %31, 0
  br i1 %32, label %33, label %34

33:                                               ; preds = %29
  call void (ptr, ...) @cli_dbgmsg(ptr noundef @.str.92)
  br label %34

34:                                               ; preds = %33, %29
  %35 = load i32, ptr %4, align 4
  %36 = and i32 %35, 4
  %37 = icmp ne i32 %36, 0
  br i1 %37, label %38, label %39

38:                                               ; preds = %34
  call void (ptr, ...) @cli_dbgmsg(ptr noundef @.str.93)
  br label %39

39:                                               ; preds = %38, %34
  ret void
}