; Function Attrs: nounwind uwtable
define internal fastcc void @cli_elf_sectionlog(i32 noundef %0, i32 noundef %1) unnamed_addr #0 {
  switch i32 %0, label %19 [
    i32 6, label %20
    i32 11, label %3
    i32 15, label %4
    i32 5, label %5
    i32 14, label %6
    i32 8, label %7
    i32 7, label %8
    i32 0, label %9
    i32 16, label %10
    i32 1, label %11
    i32 9, label %12
    i32 4, label %13
    i32 3, label %14
    i32 2, label %15
    i32 1879048189, label %16
    i32 1879048190, label %17
    i32 1879048191, label %18
  ]

3:                                                ; preds = %2
  br label %20

4:                                                ; preds = %2
  br label %20

5:                                                ; preds = %2
  br label %20

6:                                                ; preds = %2
  br label %20

7:                                                ; preds = %2
  br label %20

8:                                                ; preds = %2
  br label %20

9:                                                ; preds = %2
  br label %20

10:                                               ; preds = %2
  br label %20

11:                                               ; preds = %2
  br label %20

12:                                               ; preds = %2
  br label %20

13:                                               ; preds = %2
  br label %20

14:                                               ; preds = %2
  br label %20

15:                                               ; preds = %2
  br label %20

16:                                               ; preds = %2
  br label %20

17:                                               ; preds = %2
  br label %20

18:                                               ; preds = %2
  br label %20

19:                                               ; preds = %2
  br label %20

20:                                               ; preds = %2, %19, %18, %17, %16, %15, %14, %13, %12, %11, %10, %9, %8, %7, %6, %5, %4, %3
  %.str.90.sink = phi ptr [ @.str.90, %19 ], [ @.str.89, %18 ], [ @.str.88, %17 ], [ @.str.87, %16 ], [ @.str.86, %15 ], [ @.str.85, %14 ], [ @.str.84, %13 ], [ @.str.83, %12 ], [ @.str.82, %11 ], [ @.str.81, %10 ], [ @.str.80, %9 ], [ @.str.79, %8 ], [ @.str.78, %7 ], [ @.str.77, %6 ], [ @.str.76, %5 ], [ @.str.75, %4 ], [ @.str.74, %3 ], [ @.str.73, %2 ]
  tail call void (ptr, ...) @cli_dbgmsg(ptr noundef nonnull %.str.90.sink) #8
  %21 = and i32 %1, 1
  %.not = icmp eq i32 %21, 0
  br i1 %.not, label %23, label %22

22:                                               ; preds = %20
  tail call void (ptr, ...) @cli_dbgmsg(ptr noundef nonnull @.str.91) #8
  br label %23

23:                                               ; preds = %22, %20
  %24 = and i32 %1, 2
  %.not4 = icmp eq i32 %24, 0
  br i1 %.not4, label %26, label %25

25:                                               ; preds = %23
  tail call void (ptr, ...) @cli_dbgmsg(ptr noundef nonnull @.str.92) #8
  br label %26

26:                                               ; preds = %25, %23
  %27 = and i32 %1, 4
  %.not5 = icmp eq i32 %27, 0
  br i1 %.not5, label %29, label %28

28:                                               ; preds = %26
  tail call void (ptr, ...) @cli_dbgmsg(ptr noundef nonnull @.str.93) #8
  br label %29

29:                                               ; preds = %28, %26
  ret void
}